target datalayout = "e-m:e-p270:32:32-p271:32:32-p272:64:64-i64:64-i128:128-f80:128-n8:16:32:64-S128"
target triple = "x86_64-unknown-linux-gnu"

; Function Attrs: nounwind sspstrong uwtable
define internal i32 @vmdk_create_extent(ptr noundef %filename, i64 noundef %filesize, i1 noundef zeroext %flat, i1 noundef zeroext %compress, i1 noundef zeroext %zeroed_grain, ptr noundef %pbb, ptr noundef %opts, ptr noundef %errp) #0 {
entry:
  %filename.addr = alloca ptr, align 8
  %filesize.addr = alloca i64, align 8
  %flat.addr = alloca i8, align 1
  %compress.addr = alloca i8, align 1
  %zeroed_grain.addr = alloca i8, align 1
  %pbb.addr = alloca ptr, align 8
  %opts.addr = alloca ptr, align 8
  %errp.addr = alloca ptr, align 8
  %ret = alloca i32, align 4
  %blk = alloca ptr, align 8
  store ptr %filename, ptr %filename.addr, align 8
  store i64 %filesize, ptr %filesize.addr, align 8
  %frombool = zext i1 %flat to i8
  store i8 %frombool, ptr %flat.addr, align 1
  %frombool1 = zext i1 %compress to i8
  store i8 %frombool1, ptr %compress.addr, align 1
  %frombool2 = zext i1 %zeroed_grain to i8
  store i8 %frombool2, ptr %zeroed_grain.addr, align 1
  store ptr %pbb, ptr %pbb.addr, align 8
  store ptr %opts, ptr %opts.addr, align 8
  store ptr %errp, ptr %errp.addr, align 8
  store ptr null, ptr %blk, align 8
  %0 = load ptr, ptr %filename.addr, align 8
  %1 = load ptr, ptr %opts.addr, align 8
  %2 = load ptr, ptr %errp.addr, align 8
  %call = call i32 @bdrv_co_create_file(ptr noundef %0, ptr noundef %1, ptr noundef %2)
  store i32 %call, ptr %ret, align 4
  %3 = load i32, ptr %ret, align 4
  %cmp = icmp slt i32 %3, 0
  br i1 %cmp, label %if.then, label %if.end

if.then:                                          ; preds = %entry
  br label %exit

if.end:                                           ; preds = %entry
  %4 = load ptr, ptr %filename.addr, align 8
  %5 = load ptr, ptr %errp.addr, align 8
  %call3 = call ptr @blk_co_new_open(ptr noundef %4, ptr noundef null, ptr noundef null, i32 noundef 32774, ptr noundef %5)
  store ptr %call3, ptr %blk, align 8
  %6 = load ptr, ptr %blk, align 8
  %cmp4 = icmp eq ptr %6, null
  br i1 %cmp4, label %if.then5, label %if.end6

if.then5:                                         ; preds = %if.end
  store i32 -5, ptr %ret, align 4
  br label %exit

if.end6:                                          ; preds = %if.end
  %7 = load ptr, ptr %blk, align 8
  call void @blk_set_allow_write_beyond_eof(ptr noundef %7, i1 noundef zeroext true)
  %8 = load ptr, ptr %blk, align 8
  %9 = load i64, ptr %filesize.addr, align 8
  %10 = load i8, ptr %flat.addr, align 1
  %tobool = trunc i8 %10 to i1
  %11 = load i8, ptr %compress.addr, align 1
  %tobool7 = trunc i8 %11 to i1
  %12 = load i8, ptr %zeroed_grain.addr, align 1
  %tobool8 = trunc i8 %12 to i1
  %13 = load ptr, ptr %errp.addr, align 8
  %call9 = call i32 @vmdk_init_extent(ptr noundef %8, i64 noundef %9, i1 noundef zeroext %tobool, i1 noundef zeroext %tobool7, i1 noundef zeroext %tobool8, ptr noundef %13)
  store i32 %call9, ptr %ret, align 4
  br label %exit

exit:                                             ; preds = %if.end6, %if.then5, %if.then
  %14 = load ptr, ptr %blk, align 8
  %tobool10 = icmp ne ptr %14, null
  br i1 %tobool10, label %if.then11, label %if.end15

if.then11:                                        ; preds = %exit
  %15 = load ptr, ptr %pbb.addr, align 8
  %tobool12 = icmp ne ptr %15, null
  br i1 %tobool12, label %if.then13, label %if.else

if.then13:                                        ; preds = %if.then11
  %16 = load ptr, ptr %blk, align 8
  %17 = load ptr, ptr %pbb.addr, align 8
  store ptr %16, ptr %17, align 8
  br label %if.end14

if.else:                                          ; preds = %if.then11
  %18 = load ptr, ptr %blk, align 8
  call void @blk_co_unref(ptr noundef %18)
  store ptr null, ptr %blk, align 8
  br label %if.end14

if.end14:                                         ; preds = %if.else, %if.then13
  br label %if.end15

if.end15:                                         ; preds = %if.end14, %exit
  %19 = load i32, ptr %ret, align 4
  ret i32 %19
}