; Function Attrs: nounwind sspstrong uwtable
define internal i32 @vmdk_create_extent(ptr noundef %filename, i64 noundef %filesize, i1 noundef zeroext %flat, i1 noundef zeroext %compress, i1 noundef zeroext %zeroed_grain, ptr noundef writeonly %pbb, ptr noundef %opts, ptr noundef %errp) #0 {
entry:
  %call = tail call i32 @bdrv_co_create_file(ptr noundef %filename, ptr noundef %opts, ptr noundef %errp) #15
  %cmp = icmp slt i32 %call, 0
  br i1 %cmp, label %if.end15, label %if.end

if.end:                                           ; preds = %entry
  %call3 = tail call ptr @blk_co_new_open(ptr noundef %filename, ptr noundef null, ptr noundef null, i32 noundef 32774, ptr noundef %errp) #15
  %cmp4 = icmp eq ptr %call3, null
  br i1 %cmp4, label %if.end15, label %if.then11

if.then11:                                        ; preds = %if.end
  tail call void @blk_set_allow_write_beyond_eof(ptr noundef nonnull %call3, i1 noundef zeroext true) #15
  %call9 = tail call i32 @vmdk_init_extent(ptr noundef nonnull %call3, i64 noundef %filesize, i1 noundef zeroext %flat, i1 noundef zeroext %compress, i1 noundef zeroext %zeroed_grain, ptr noundef %errp)
  %tobool12.not = icmp eq ptr %pbb, null
  br i1 %tobool12.not, label %if.else, label %if.then13

if.then13:                                        ; preds = %if.then11
  store ptr %call3, ptr %pbb, align 8
  br label %if.end15

if.else:                                          ; preds = %if.then11
  tail call void @blk_co_unref(ptr noundef nonnull %call3) #15
  br label %if.end15

if.end15:                                         ; preds = %if.end, %entry, %if.then13, %if.else
  %ret.014 = phi i32 [ %call9, %if.then13 ], [ %call9, %if.else ], [ -5, %if.end ], [ %call, %entry ]
  ret i32 %ret.014
}